; Function Attrs: nofree norecurse nosync nounwind memory(readwrite, inaccessiblemem: none) uwtable
define range(i32 -13, 1) i32 @prte_state_base_set_proc_state_callback(i32 noundef %0, ptr noundef %1) local_unnamed_addr #6 {
  %prte_proc_states.val = load ptr, ptr getelementptr inbounds nuw (i8, ptr @prte_proc_states, i64 240), align 8, !tbaa !3
  %.not11 = icmp eq ptr %prte_proc_states.val, getelementptr inbounds nuw (i8, ptr @prte_proc_states, i64 120)
  br i1 %.not11, label %.loopexit, label %.lr.ph

.lr.ph:                                           ; preds = %2, %12
  %.0812 = phi ptr [ %13, %12 ], [ %prte_proc_states.val, %2 ]
  %3 = getelementptr inbounds nuw i8, ptr %.0812, i64 148
  %4 = load i32, ptr %3, align 4, !tbaa !62
  %5 = icmp eq i32 %4, %0
  br i1 %5, label %6, label %8

6:                                                ; preds = %.lr.ph
  %7 = getelementptr inbounds nuw i8, ptr %.0812, i64 152
  store ptr %1, ptr %7, align 8, !tbaa !28
  br label %.loopexit

8:                                                ; preds = %.lr.ph
  %.not9 = icmp eq ptr %.0812, null
  br i1 %.not9, label %12, label %9

9:                                                ; preds = %8
  %10 = getelementptr inbounds nuw i8, ptr %.0812, i64 120
  %11 = load ptr, ptr %10, align 8, !tbaa !51
  br label %12

12:                                               ; preds = %8, %9
  %13 = phi ptr [ %11, %9 ], [ null, %8 ]
  %.not = icmp eq ptr %13, getelementptr inbounds nuw (i8, ptr @prte_proc_states, i64 120)
  br i1 %.not, label %.loopexit, label %.lr.ph, !llvm.loop !68

.loopexit:                                        ; preds = %12, %2, %6
  %.0 = phi i32 [ 0, %6 ], [ -13, %2 ], [ -13, %12 ]
  ret i32 %.0
}